Certificate:
    Data:
        Version: 3 (0x2)
        Serial Number: 1 (0x1)
    Signature Algorithm: sha1WithRSAEncryption
        Issuer: DC=org, DC=simple, O=Simple Inc, OU=Simple Signing CA, CN=Simple Signing CA
        Validity
            Not Before: Jan  4 21:34:54 2017 GMT
            Not After : Jan  4 21:34:54 2019 GMT
        Subject: DC=org, DC=simple, O=Simple Inc, CN=Fred Flinston
        Subject Public Key Info:
            Public Key Algorithm: rsaEncryption
                Public-Key: (2048 bit)
                Modulus:
                    00:a4:99:a6:6c:d2:88:c4:7a:7c:ee:2e:4b:71:ea:
                    dc:19:d4:0e:10:84:a4:10:06:35:ae:25:a0:a0:81:
                    82:9a:49:91:cc:77:f1:c4:83:d3:94:90:09:88:92:
                    58:47:fb:51:69:93:08:e6:35:fb:e4:30:9d:ea:6b:
                    f4:80:36:46:63:59:d9:4b:78:8a:69:7e:18:72:b8:
                    26:d9:30:fe:80:be:f6:75:7f:2c:24:cf:94:c4:1a:
                    76:19:8c:0b:c9:82:b9:37:29:76:34:98:a2:61:92:
                    49:fe:37:cb:b0:5e:27:6c:1d:a3:52:f4:b8:80:b2:
                    85:75:fe:24:5c:6d:39:c0:91:d6:56:91:af:e4:3e:
                    23:95:35:0c:32:85:de:39:4b:2e:32:59:b0:97:65:
                    be:f3:59:db:6d:46:bf:76:72:4e:6e:99:8b:19:49:
                    56:52:57:ec:05:24:4d:83:ce:96:24:43:69:cd:fd:
                    15:d3:d8:aa:40:e4:c8:23:c0:1c:86:27:74:28:d0:
                    35:dc:20:5d:0d:d4:f5:fe:39:6d:b2:5f:91:ac:94:
                    cd:22:6b:fb:91:c6:d4:31:da:a0:74:30:ef:35:60:
                    1c:50:a1:5f:b5:3a:7e:5b:85:e3:70:9f:4a:ef:24:
                    2e:02:56:93:4d:03:6e:a7:31:2b:88:43:6d:bb:79:
                    5f:e1
                Exponent: 65537 (0x10001)
        X509v3 extensions:
            X509v3 Key Usage: critical
                Digital Signature, Key Encipherment
            X509v3 Basic Constraints: 
                CA:FALSE
            X509v3 Extended Key Usage: 
                E-mail Protection, TLS Web Client Authentication
            X509v3 Subject Key Identifier: 
                EB:A5:53:2E:C0:6F:36:B7:15:9F:3B:85:2B:50:99:C0:BD:EB:31:54
            X509v3 Authority Key Identifier: 
                keyid:A4:69:EE:89:CB:71:4C:52:87:AA:D7:16:8D:C7:1F:14:EE:17:35:C2

            X509v3 Subject Alternative Name: 
                email:fred@simple.org
    Signature Algorithm: sha1WithRSAEncryption
         46:af:ad:41:05:33:18:07:2f:64:4f:c5:13:34:ee:64:a6:fa:
         85:84:7c:4e:47:88:3c:ee:a9:f0:91:c5:93:30:bc:3c:3c:48:
         b5:a4:f5:e5:d8:1b:77:cf:00:6d:18:66:b7:2d:bd:ad:c3:e7:
         15:10:db:25:0b:50:ca:01:9c:4f:d5:9e:ca:41:da:eb:5c:0a:
         f2:c7:16:8c:f9:22:4a:3d:e3:a8:e2:27:8e:99:cb:37:72:c8:
         77:39:9e:4a:d0:f5:ce:12:41:d7:0e:3a:aa:eb:b0:b0:da:6f:
         15:7c:a2:ca:a2:9d:d2:47:9f:cf:1c:3c:3a:0b:a0:7f:44:b1:
         0b:aa:e6:d2:5a:a0:2a:9a:4e:45:20:e6:53:34:34:ab:f2:d6:
         00:15:33:5f:4a:92:07:0b:4e:3b:3f:4b:5a:15:c6:e2:bb:45:
         9f:47:4d:03:d0:b3:1f:26:5c:c8:61:0a:9f:ca:44:6b:8c:cf:
         77:94:fb:84:a6:85:4c:e6:93:99:f7:31:50:9e:00:ba:ac:d9:
         47:a3:6c:b4:ce:37:eb:b1:b7:80:be:a3:46:77:f5:13:d6:29:
         e1:d7:15:a6:45:2a:f5:11:13:36:54:2f:68:01:b4:17:dc:44:
         f6:ab:25:c9:ec:a7:83:a2:93:a8:dc:f2:91:18:e8:af:6f:a6:
         b7:9f:9d:98
-----BEGIN CERTIFICATE-----
MIID6TCCAtGgAwIBAgIBATANBgkqhkiG9w0BAQUFADB6MRMwEQYKCZImiZPyLGQB
GRYDb3JnMRYwFAYKCZImiZPyLGQBGRYGc2ltcGxlMRMwEQYDVQQKDApTaW1wbGUg
SW5jMRowGAYDVQQLDBFTaW1wbGUgU2lnbmluZyBDQTEaMBgGA1UEAwwRU2ltcGxl
IFNpZ25pbmcgQ0EwHhcNMTcwMTA0MjEzNDU0WhcNMTkwMTA0MjEzNDU0WjBaMRMw
EQYKCZImiZPyLGQBGRYDb3JnMRYwFAYKCZImiZPyLGQBGRYGc2ltcGxlMRMwEQYD
VQQKDApTaW1wbGUgSW5jMRYwFAYDVQQDDA1GcmVkIEZsaW5zdG9uMIIBIjANBgkq
hkiG9w0BAQEFAAOCAQ8AMIIBCgKCAQEApJmmbNKIxHp87i5LcercGdQOEISkEAY1
riWgoIGCmkmRzHfxxIPTlJAJiJJYR/tRaZMI5jX75DCd6mv0gDZGY1nZS3iKaX4Y
crgm2TD+gL72dX8sJM+UxBp2GYwLyYK5Nyl2NJiiYZJJ/jfLsF4nbB2jUvS4gLKF
df4kXG05wJHWVpGv5D4jlTUMMoXeOUsuMlmwl2W+81nbbUa/dnJObpmLGUlWUlfs
BSRNg86WJENpzf0V09iqQOTII8Achid0KNA13CBdDdT1/jltsl+RrJTNImv7kcbU
MdqgdDDvNWAcUKFftTp+W4XjcJ9K7yQuAlaTTQNupzEriENtu3lf4QIDAQABo4GZ
MIGWMA4GA1UdDwEB/wQEAwIFoDAJBgNVHRMEAjAAMB0GA1UdJQQWMBQGCCsGAQUF
BwMEBggrBgEFBQcDAjAdBgNVHQ4EFgQU66VTLsBvNrcVnzuFK1CZwL3rMVQwHwYD
VR0jBBgwFoAUpGnuictxTFKHqtcWjccfFO4XNcIwGgYDVR0RBBMwEYEPZnJlZEBz
aW1wbGUub3JnMA0GCSqGSIb3DQEBBQUAA4IBAQBGr61BBTMYBy9kT8UTNO5kpvqF
hHxOR4g87qnwkcWTMLw8PEi1pPXl2Bt3zwBtGGa3Lb2tw+cVENslC1DKAZxP1Z7K
QdrrXAryxxaM+SJKPeOo4ieOmcs3csh3OZ5K0PXOEkHXDjqq67Cw2m8VfKLKop3S
R5/PHDw6C6B/RLELqubSWqAqmk5FIOZTNDSr8tYAFTNfSpIHC047P0taFcbiu0Wf
R00D0LMfJlzIYQqfykRrjM93lPuEpoVM5pOZ9zFQngC6rNlHo2y0zjfrsbeAvqNG
d/UT1inh1xWmRSr1ERM2VC9oAbQX3ET2qyXJ7KeDopOo3PKRGOivb6a3n52Y
-----END CERTIFICATE-----
