Certificate:
    Data:
        Version: 3 (0x2)
        Serial Number: 2 (0x2)
    Signature Algorithm: sha1WithRSAEncryption
        Issuer: DC=org, DC=simple, O=Simple Inc, OU=Simple Signing CA, CN=Simple Signing CA
        Validity
            Not Before: Jan  4 21:37:23 2017 GMT
            Not After : Jan  4 21:37:23 2019 GMT
        Subject: DC=org, DC=simple, O=Simple Inc, CN=www.simple.org
        Subject Public Key Info:
            Public Key Algorithm: rsaEncryption
                Public-Key: (2048 bit)
                Modulus:
                    00:ca:f4:22:45:94:ac:af:d0:fc:45:ee:40:04:c8:
                    6c:47:75:f8:7c:29:d4:ab:d6:d9:44:58:82:81:6d:
                    5c:be:64:3a:d6:21:d6:b7:bb:b2:fe:60:a3:d3:71:
                    78:1d:86:90:13:c8:d0:d5:6f:d2:8f:4c:7b:81:7a:
                    ad:b5:f4:75:9b:d2:09:0e:50:47:c6:b9:12:0b:cf:
                    f9:5e:76:3d:fd:49:a9:d0:d3:54:8e:66:1e:70:af:
                    65:74:5c:74:14:ab:51:f7:ee:11:d2:d3:09:99:19:
                    f4:0b:b4:b4:28:97:e0:8c:d1:29:e1:ad:84:d9:67:
                    94:e8:7b:04:3f:b1:8f:f7:46:f5:e6:04:e7:19:7e:
                    cb:cb:2a:ff:72:af:65:fc:d9:47:ed:97:86:6f:3f:
                    20:ec:c1:00:43:14:12:0d:d5:a5:c3:00:60:ef:9b:
                    64:e1:90:6c:98:ba:d4:d0:05:23:8d:3d:2c:ce:46:
                    1e:46:0f:6e:10:12:01:2b:31:96:70:3c:4d:91:9f:
                    32:57:88:64:74:d1:ba:1c:8c:76:b0:13:05:aa:e6:
                    67:e8:64:f5:d3:bd:df:e1:09:74:c8:0e:02:95:88:
                    94:26:6b:a4:cc:b6:8b:e5:d9:03:24:b8:fe:15:fe:
                    53:7f:55:0e:5a:2f:63:d3:ec:2d:9d:46:b2:74:9f:
                    f8:93
                Exponent: 65537 (0x10001)
        X509v3 extensions:
            X509v3 Key Usage: critical
                Digital Signature, Key Encipherment
            X509v3 Basic Constraints: 
                CA:FALSE
            X509v3 Extended Key Usage: 
                TLS Web Server Authentication, TLS Web Client Authentication
            X509v3 Subject Key Identifier: 
                BE:C1:F0:FF:89:4B:3A:06:BE:64:23:0F:61:8B:16:8A:A1:8D:C4:8E
            X509v3 Authority Key Identifier: 
                keyid:A4:69:EE:89:CB:71:4C:52:87:AA:D7:16:8D:C7:1F:14:EE:17:35:C2

            X509v3 Subject Alternative Name: 
                DNS:www.simple.org
    Signature Algorithm: sha1WithRSAEncryption
         49:db:14:e6:4e:a5:5f:f1:38:02:52:62:ec:d0:06:b4:7f:83:
         3b:15:a7:28:92:bf:92:4c:8a:c3:87:29:41:c7:46:e5:7c:a9:
         68:ac:64:16:36:35:5f:4c:7e:f4:83:58:6c:e1:76:b0:4b:ac:
         c7:bc:19:27:8e:f3:a8:64:f0:0a:da:44:be:b6:31:f4:d5:57:
         86:aa:d6:dc:2d:ae:9e:cf:3e:f5:91:6a:ee:b0:51:aa:c8:14:
         d6:22:ef:ba:51:0b:80:86:28:16:c3:78:1c:5b:aa:b4:6b:c5:
         0e:e6:97:42:43:e5:43:3d:f2:e4:d6:32:60:56:23:9c:d3:af:
         21:a2:4f:f4:83:f9:40:ae:37:92:cd:c2:36:f0:eb:b9:54:f0:
         d6:0c:59:77:1c:d1:d0:50:38:7d:3c:5e:61:fc:88:34:84:e3:
         f2:ab:e1:0f:c0:f5:cd:21:f9:5d:8a:7c:99:80:54:89:01:e0:
         20:9e:d8:70:45:c6:db:9a:e2:ed:cf:32:9f:c7:6d:a3:43:26:
         19:5c:b9:fc:97:f9:70:6c:6b:5e:25:b0:58:e2:a5:38:c4:b2:
         69:03:c6:0d:78:a2:29:2f:ad:8f:1c:88:ee:6d:36:29:f0:28:
         6b:8f:58:0f:6d:8a:4b:c6:5f:f2:1c:ab:ab:d6:69:89:4b:ce:
         27:ed:c2:75
-----BEGIN CERTIFICATE-----
MIID6TCCAtGgAwIBAgIBAjANBgkqhkiG9w0BAQUFADB6MRMwEQYKCZImiZPyLGQB
GRYDb3JnMRYwFAYKCZImiZPyLGQBGRYGc2ltcGxlMRMwEQYDVQQKDApTaW1wbGUg
SW5jMRowGAYDVQQLDBFTaW1wbGUgU2lnbmluZyBDQTEaMBgGA1UEAwwRU2ltcGxl
IFNpZ25pbmcgQ0EwHhcNMTcwMTA0MjEzNzIzWhcNMTkwMTA0MjEzNzIzWjBbMRMw
EQYKCZImiZPyLGQBGRYDb3JnMRYwFAYKCZImiZPyLGQBGRYGc2ltcGxlMRMwEQYD
VQQKDApTaW1wbGUgSW5jMRcwFQYDVQQDDA53d3cuc2ltcGxlLm9yZzCCASIwDQYJ
KoZIhvcNAQEBBQADggEPADCCAQoCggEBAMr0IkWUrK/Q/EXuQATIbEd1+Hwp1KvW
2URYgoFtXL5kOtYh1re7sv5go9NxeB2GkBPI0NVv0o9Me4F6rbX0dZvSCQ5QR8a5
EgvP+V52Pf1JqdDTVI5mHnCvZXRcdBSrUffuEdLTCZkZ9Au0tCiX4IzRKeGthNln
lOh7BD+xj/dG9eYE5xl+y8sq/3KvZfzZR+2Xhm8/IOzBAEMUEg3VpcMAYO+bZOGQ
bJi61NAFI409LM5GHkYPbhASASsxlnA8TZGfMleIZHTRuhyMdrATBarmZ+hk9dO9
3+EJdMgOApWIlCZrpMy2i+XZAyS4/hX+U39VDlovY9PsLZ1GsnSf+JMCAwEAAaOB
mDCBlTAOBgNVHQ8BAf8EBAMCBaAwCQYDVR0TBAIwADAdBgNVHSUEFjAUBggrBgEF
BQcDAQYIKwYBBQUHAwIwHQYDVR0OBBYEFL7B8P+JSzoGvmQjD2GLFoqhjcSOMB8G
A1UdIwQYMBaAFKRp7onLcUxSh6rXFo3HHxTuFzXCMBkGA1UdEQQSMBCCDnd3dy5z
aW1wbGUub3JnMA0GCSqGSIb3DQEBBQUAA4IBAQBJ2xTmTqVf8TgCUmLs0Aa0f4M7
Facokr+STIrDhylBx0blfKlorGQWNjVfTH70g1hs4XawS6zHvBknjvOoZPAK2kS+
tjH01VeGqtbcLa6ezz71kWrusFGqyBTWIu+6UQuAhigWw3gcW6q0a8UO5pdCQ+VD
PfLk1jJgViOc068hok/0g/lArjeSzcI28Ou5VPDWDFl3HNHQUDh9PF5h/Ig0hOPy
q+EPwPXNIfldinyZgFSJAeAgnthwRcbbmuLtzzKfx22jQyYZXLn8l/lwbGteJbBY
4qU4xLJpA8YNeKIpL62PHIjubTYp8Chrj1gPbYpLxl/yHKur1mmJS84n7cJ1
-----END CERTIFICATE-----
