Certificate:
    Data:
        Version: 3 (0x2)
        Serial Number: 2 (0x2)
    Signature Algorithm: sha1WithRSAEncryption
        Issuer: DC=org, DC=simple, O=Simple Inc, OU=Simple Root CA, CN=Simple Root CA
        Validity
            Not Before: Jan  4 21:31:34 2017 GMT
            Not After : Jan  4 21:31:34 2027 GMT
        Subject: DC=org, DC=simple, O=Simple Inc, OU=Simple Signing CA, CN=Simple Signing CA
        Subject Public Key Info:
            Public Key Algorithm: rsaEncryption
                Public-Key: (2048 bit)
                Modulus:
                    00:e4:3f:e3:be:51:f8:fa:55:1d:d6:99:ce:bc:18:
                    1b:ea:fd:64:04:4a:a4:5a:9e:9c:55:60:f4:51:46:
                    6d:5f:d1:01:5f:ec:7e:82:62:1e:8b:28:13:c7:e0:
                    0b:8c:73:b4:e7:c4:57:37:86:a8:ad:aa:23:d1:0e:
                    14:08:70:f2:a8:7f:67:9d:97:c0:37:96:d4:5c:eb:
                    7f:b1:06:b4:7f:a3:3f:f7:14:a5:b5:d9:c1:8c:32:
                    c7:65:fe:cf:37:aa:b9:a6:81:59:45:24:ca:af:d8:
                    5d:dd:12:5a:86:39:b7:f6:be:48:f8:13:04:36:33:
                    a5:17:d2:f6:2a:c0:fc:ed:d2:8a:c1:69:1d:1f:7e:
                    a8:a7:a2:f3:d1:46:e4:5f:5c:e7:35:73:66:e6:a3:
                    48:81:9d:98:28:65:04:8a:eb:80:7e:19:6a:65:0a:
                    23:76:3b:cd:44:05:72:20:8c:20:dc:21:bc:44:e4:
                    ad:b7:6f:d8:09:5e:25:53:56:47:9a:24:c2:32:8e:
                    8a:f4:f2:b2:ca:d8:a3:49:0e:32:40:40:6a:fc:20:
                    ca:f6:df:d4:38:38:ad:b5:4a:a1:86:d5:02:69:90:
                    38:ea:ca:51:aa:c4:2e:db:f8:6f:93:12:26:69:2f:
                    64:41:b7:bb:87:3f:72:b7:3c:75:2d:bd:9b:1d:6c:
                    d6:8f
                Exponent: 65537 (0x10001)
        X509v3 extensions:
            X509v3 Key Usage: critical
                Certificate Sign, CRL Sign
            X509v3 Basic Constraints: critical
                CA:TRUE, pathlen:0
            X509v3 Subject Key Identifier: 
                A4:69:EE:89:CB:71:4C:52:87:AA:D7:16:8D:C7:1F:14:EE:17:35:C2
            X509v3 Authority Key Identifier: 
                keyid:64:64:C7:ED:AA:29:A1:BB:5A:22:D8:BB:96:69:2C:8B:31:3A:F7:89

    Signature Algorithm: sha1WithRSAEncryption
         aa:ab:e8:7d:89:92:f8:79:f1:7f:61:44:53:03:ac:f4:86:89:
         2c:a0:97:cb:38:0e:4f:4c:99:ff:81:f4:cf:c3:9f:0b:bc:c7:
         11:36:d0:1d:f3:0c:14:7c:1b:32:e5:7d:82:1f:d2:4b:22:cb:
         da:d4:a1:f3:15:8c:f1:a3:3a:0e:12:e1:01:b6:e3:76:42:45:
         06:1e:1c:7e:6c:3e:22:d0:5d:d8:61:df:2c:ea:07:a3:c0:b2:
         38:96:18:44:f1:95:90:25:ab:3a:33:75:fc:31:3e:64:be:a3:
         f3:ac:d0:af:6c:4a:db:5b:a5:89:d1:66:5a:61:7c:85:14:d6:
         0b:25:aa:0c:7d:ff:8f:10:54:ba:8b:eb:20:9f:45:b0:81:b0:
         41:1c:2f:f4:a3:b3:bc:c3:07:cc:10:7f:c6:05:ba:6b:0c:8f:
         2c:3f:ea:89:7d:00:1a:2a:57:ea:62:75:c9:2d:c2:ce:65:5a:
         ac:31:0e:d3:03:54:0a:70:59:91:0d:a7:18:75:97:87:ba:f2:
         b9:52:ee:26:af:8e:d5:fa:f6:b0:f1:d7:84:5c:49:40:76:ff:
         b4:49:c0:0b:14:d5:d0:4f:33:76:39:fe:3d:fe:c1:bb:76:4d:
         34:e5:ca:f4:c6:5f:37:bc:df:ca:10:ca:83:36:6d:63:35:ce:
         68:ba:fc:f5
-----BEGIN CERTIFICATE-----
MIIDzzCCAregAwIBAgIBAjANBgkqhkiG9w0BAQUFADB0MRMwEQYKCZImiZPyLGQB
GRYDb3JnMRYwFAYKCZImiZPyLGQBGRYGc2ltcGxlMRMwEQYDVQQKDApTaW1wbGUg
SW5jMRcwFQYDVQQLDA5TaW1wbGUgUm9vdCBDQTEXMBUGA1UEAwwOU2ltcGxlIFJv
b3QgQ0EwHhcNMTcwMTA0MjEzMTM0WhcNMjcwMTA0MjEzMTM0WjB6MRMwEQYKCZIm
iZPyLGQBGRYDb3JnMRYwFAYKCZImiZPyLGQBGRYGc2ltcGxlMRMwEQYDVQQKDApT
aW1wbGUgSW5jMRowGAYDVQQLDBFTaW1wbGUgU2lnbmluZyBDQTEaMBgGA1UEAwwR
U2ltcGxlIFNpZ25pbmcgQ0EwggEiMA0GCSqGSIb3DQEBAQUAA4IBDwAwggEKAoIB
AQDkP+O+Ufj6VR3Wmc68GBvq/WQESqRanpxVYPRRRm1f0QFf7H6CYh6LKBPH4AuM
c7TnxFc3hqitqiPRDhQIcPKof2edl8A3ltRc63+xBrR/oz/3FKW12cGMMsdl/s83
qrmmgVlFJMqv2F3dElqGObf2vkj4EwQ2M6UX0vYqwPzt0orBaR0ffqinovPRRuRf
XOc1c2bmo0iBnZgoZQSK64B+GWplCiN2O81EBXIgjCDcIbxE5K23b9gJXiVTVkea
JMIyjor08rLK2KNJDjJAQGr8IMr239Q4OK21SqGG1QJpkDjqylGqxC7b+G+TEiZp
L2RBt7uHP3K3PHUtvZsdbNaPAgMBAAGjZjBkMA4GA1UdDwEB/wQEAwIBBjASBgNV
HRMBAf8ECDAGAQH/AgEAMB0GA1UdDgQWBBSkae6Jy3FMUoeq1xaNxx8U7hc1wjAf
BgNVHSMEGDAWgBRkZMftqimhu1oi2LuWaSyLMTr3iTANBgkqhkiG9w0BAQUFAAOC
AQEAqqvofYmS+Hnxf2FEUwOs9IaJLKCXyzgOT0yZ/4H0z8OfC7zHETbQHfMMFHwb
MuV9gh/SSyLL2tSh8xWM8aM6DhLhAbbjdkJFBh4cfmw+ItBd2GHfLOoHo8CyOJYY
RPGVkCWrOjN1/DE+ZL6j86zQr2xK21ulidFmWmF8hRTWCyWqDH3/jxBUuovrIJ9F
sIGwQRwv9KOzvMMHzBB/xgW6awyPLD/qiX0AGipX6mJ1yS3CzmVarDEO0wNUCnBZ
kQ2nGHWXh7ryuVLuJq+O1fr2sPHXhFxJQHb/tEnACxTV0E8zdjn+Pf7Bu3ZNNOXK
9MZfN7zfyhDKgzZtYzXOaLr89Q==
-----END CERTIFICATE-----
